; Function Attrs: nounwind uwtable
define void @Kit_DsdVerify(ptr noundef %0, ptr noundef readonly captures(none) %1, i32 noundef %2) local_unnamed_addr #0 {
  %.val = load i16, ptr %0, align 8, !tbaa !34
  %4 = getelementptr i8, ptr %0, i64 4
  %.val8 = load i16, ptr %4, align 4, !tbaa !38
  %5 = zext i16 %.val to i32
  %6 = zext i16 %.val8 to i32
  %7 = add nuw nsw i32 %5, 2
  %8 = add nuw nsw i32 %7, %6
  %9 = tail call ptr @Kit_DsdManAlloc(i32 noundef %2, i32 noundef %8)
  %10 = load i16, ptr %0, align 8, !tbaa !34
  %.not22.i = icmp eq i16 %10, 0
  br i1 %.not22.i, label %._crit_edge.i, label %.lr.ph.i

.lr.ph.i:                                         ; preds = %3
  %11 = getelementptr inbounds nuw i8, ptr %9, i64 16
  %12 = load ptr, ptr %11, align 8, !tbaa !25
  %13 = getelementptr i8, ptr %12, i64 8
  %.val15.i = load ptr, ptr %13, align 8, !tbaa !19
  %14 = getelementptr inbounds nuw i8, ptr %9, i64 8
  %15 = load ptr, ptr %14, align 8, !tbaa !24
  %16 = getelementptr i8, ptr %15, i64 8
  %.val.i = load ptr, ptr %16, align 8, !tbaa !19
  %wide.trip.count.i = zext i16 %10 to i64
  %.pre = load i32, ptr %9, align 8, !tbaa !3
  %17 = icmp slt i32 %.pre, 6
  %18 = add nsw i32 %.pre, -5
  %19 = shl nuw i32 1, %18
  %spec.select.i.i = select i1 %17, i32 1, i32 %19
  %20 = icmp sgt i32 %spec.select.i.i, 0
  %21 = zext nneg i32 %spec.select.i.i to i64
  br label %22

22:                                               ; preds = %Kit_TruthCopy.exit.i, %.lr.ph.i
  %indvars.iv.i = phi i64 [ 0, %.lr.ph.i ], [ %indvars.iv.next.i, %Kit_TruthCopy.exit.i ]
  %23 = getelementptr inbounds nuw ptr, ptr %.val15.i, i64 %indvars.iv.i
  %24 = load ptr, ptr %23, align 8, !tbaa !13
  %25 = getelementptr inbounds nuw ptr, ptr %.val.i, i64 %indvars.iv.i
  %26 = load ptr, ptr %25, align 8, !tbaa !13
  br i1 %20, label %select.unfold.i.i, label %Kit_TruthCopy.exit.i

select.unfold.i.i:                                ; preds = %22, %select.unfold.i.i
  %indvars.iv.i.i = phi i64 [ %indvars.iv.next.i.i, %select.unfold.i.i ], [ %21, %22 ]
  %indvars.iv.next.i.i = add nsw i64 %indvars.iv.i.i, -1
  %27 = getelementptr inbounds nuw i32, ptr %26, i64 %indvars.iv.next.i.i
  %28 = load i32, ptr %27, align 4, !tbaa !20
  %29 = getelementptr inbounds nuw i32, ptr %24, i64 %indvars.iv.next.i.i
  store i32 %28, ptr %29, align 4, !tbaa !20
  %30 = icmp samesign ugt i64 %indvars.iv.i.i, 1
  br i1 %30, label %select.unfold.i.i, label %Kit_TruthCopy.exit.i, !llvm.loop !56

Kit_TruthCopy.exit.i:                             ; preds = %select.unfold.i.i, %22
  %indvars.iv.next.i = add nuw nsw i64 %indvars.iv.i, 1
  %exitcond.not.i = icmp eq i64 %indvars.iv.next.i, %wide.trip.count.i
  br i1 %exitcond.not.i, label %._crit_edge.i, label %22, !llvm.loop !57

._crit_edge.i:                                    ; preds = %Kit_TruthCopy.exit.i, %3
  %31 = getelementptr inbounds nuw i8, ptr %0, i64 6
  %32 = load i16, ptr %31, align 2, !tbaa !51
  %33 = lshr i16 %32, 1
  %34 = zext nneg i16 %33 to i32
  %35 = tail call ptr @Kit_DsdTruthComputeNode_rec(ptr noundef %9, ptr noundef nonnull %0, i32 noundef %34)
  %36 = load i16, ptr %31, align 2, !tbaa !51
  %37 = and i16 %36, 1
  %.not.i = icmp eq i16 %37, 0
  br i1 %.not.i, label %Kit_DsdTruthCompute.exit, label %38

38:                                               ; preds = %._crit_edge.i
  %39 = load i16, ptr %0, align 8, !tbaa !34
  %40 = zext i16 %39 to i32
  %41 = icmp ult i16 %39, 6
  %42 = add nsw i32 %40, -5
  %43 = shl nuw i32 1, %42
  %spec.select.i16.i = select i1 %41, i32 1, i32 %43
  %44 = icmp sgt i32 %spec.select.i16.i, 0
  br i1 %44, label %select.unfold.preheader.i17.i, label %Kit_DsdTruthCompute.exit

select.unfold.preheader.i17.i:                    ; preds = %38
  %45 = zext nneg i32 %spec.select.i16.i to i64
  br label %select.unfold.i18.i

select.unfold.i18.i:                              ; preds = %select.unfold.i18.i, %select.unfold.preheader.i17.i
  %indvars.iv.i19.i = phi i64 [ %45, %select.unfold.preheader.i17.i ], [ %indvars.iv.next.i20.i, %select.unfold.i18.i ]
  %indvars.iv.next.i20.i = add nsw i64 %indvars.iv.i19.i, -1
  %46 = getelementptr inbounds nuw i32, ptr %35, i64 %indvars.iv.next.i20.i
  %47 = load i32, ptr %46, align 4, !tbaa !20
  %48 = xor i32 %47, -1
  store i32 %48, ptr %46, align 4, !tbaa !20
  %49 = icmp samesign ugt i64 %indvars.iv.i19.i, 1
  br i1 %49, label %select.unfold.i18.i, label %Kit_DsdTruthCompute.exit, !llvm.loop !58

Kit_DsdTruthCompute.exit:                         ; preds = %select.unfold.i18.i, %._crit_edge.i, %38
  %50 = icmp slt i32 %2, 6
  %51 = add nsw i32 %2, -5
  %52 = shl nuw i32 1, %51
  %spec.select.i = select i1 %50, i32 1, i32 %52
  %53 = zext i32 %spec.select.i to i64
  br label %select.unfold.i

select.unfold.i:                                  ; preds = %56, %Kit_DsdTruthCompute.exit
  %indvars.iv.i9 = phi i64 [ %53, %Kit_DsdTruthCompute.exit ], [ %57, %56 ]
  %54 = trunc nuw i64 %indvars.iv.i9 to i32
  %55 = icmp sgt i32 %54, 0
  br i1 %55, label %56, label %Extra_TruthIsEqual.exit

56:                                               ; preds = %select.unfold.i
  %57 = add nsw i64 %indvars.iv.i9, -1
  %58 = getelementptr inbounds nuw i32, ptr %1, i64 %57
  %59 = load i32, ptr %58, align 4, !tbaa !20
  %60 = getelementptr inbounds nuw i32, ptr %35, i64 %57
  %61 = load i32, ptr %60, align 4, !tbaa !20
  %.not.i10 = icmp eq i32 %59, %61
  br i1 %.not.i10, label %select.unfold.i, label %62, !llvm.loop !59

62:                                               ; preds = %56
  %63 = tail call i32 (ptr, ...) @printf(ptr noundef nonnull dereferenceable(1) @.str.15, i32 noundef %2)
  br label %Extra_TruthIsEqual.exit

Extra_TruthIsEqual.exit:                          ; preds = %select.unfold.i, %62
  tail call void @Kit_DsdManFree(ptr noundef %9)
  ret void
}